target datalayout = "e-m:e-p270:32:32-p271:32:32-p272:64:64-i64:64-i128:128-f80:128-n8:16:32:64-S128"
target triple = "x86_64-pc-linux-gnu"

%struct.vendor_secret_entry_s = type { [16 x i8], i8 }

@vendor_secret_storage = internal global [64 x %struct.vendor_secret_entry_s] zeroinitializer, align 16

; Function Attrs: nounwind null_pointer_is_valid sspstrong uwtable
define internal ptr @vendor_secret_storage_get_entry(ptr noundef %0) #0 {
  %2 = alloca ptr, align 8
  %3 = alloca ptr, align 8
  %4 = alloca i32, align 4
  store ptr %0, ptr %2, align 8
  call void @llvm.lifetime.start.p0(i64 8, ptr %3) #9
  store ptr null, ptr %3, align 8
  call void @llvm.lifetime.start.p0(i64 4, ptr %4) #9
  store i32 0, ptr %4, align 4
  br label %5

5:                                                ; preds = %28, %1
  %6 = load i32, ptr %4, align 4
  %7 = icmp slt i32 %6, 64
  br i1 %7, label %8, label %31

8:                                                ; preds = %5
  %9 = load i32, ptr %4, align 4
  %10 = sext i32 %9 to i64
  %11 = getelementptr [64 x %struct.vendor_secret_entry_s], ptr @vendor_secret_storage, i64 0, i64 %10
  %12 = getelementptr inbounds nuw %struct.vendor_secret_entry_s, ptr %11, i32 0, i32 1
  %13 = load i8, ptr %12, align 1, !range !6, !noundef !7
  %14 = trunc i8 %13 to i1
  br i1 %14, label %15, label %28

15:                                               ; preds = %8
  %16 = load i32, ptr %4, align 4
  %17 = sext i32 %16 to i64
  %18 = getelementptr [64 x %struct.vendor_secret_entry_s], ptr @vendor_secret_storage, i64 0, i64 %17
  %19 = getelementptr inbounds nuw %struct.vendor_secret_entry_s, ptr %18, i32 0, i32 0
  %20 = getelementptr inbounds [16 x i8], ptr %19, i64 0, i64 0
  %21 = load ptr, ptr %2, align 8
  %22 = call i32 @memcmp(ptr noundef %20, ptr noundef %21, i64 noundef 16) #10
  %23 = icmp eq i32 %22, 0
  br i1 %23, label %24, label %28

24:                                               ; preds = %15
  %25 = load i32, ptr %4, align 4
  %26 = sext i32 %25 to i64
  %27 = getelementptr %struct.vendor_secret_entry_s, ptr @vendor_secret_storage, i64 %26
  store ptr %27, ptr %3, align 8
  br label %31

28:                                               ; preds = %15, %8
  %29 = load i32, ptr %4, align 4
  %30 = add i32 %29, 1
  store i32 %30, ptr %4, align 4
  br label %5, !llvm.loop !22

31:                                               ; preds = %24, %5
  %32 = load ptr, ptr %3, align 8
  call void @llvm.lifetime.end.p0(i64 4, ptr %4) #9
  call void @llvm.lifetime.end.p0(i64 8, ptr %3) #9
  ret ptr %32
}

; Function Attrs: null_pointer_is_valid sspstrong uwtable
define hidden void @vendor_secret_storage_release_entry(ptr noundef %0) #2 {
  %2 = alloca ptr, align 8
  %3 = alloca ptr, align 8
  store ptr %0, ptr %2, align 8
  call void @llvm.lifetime.start.p0(i64 8, ptr %3) #9
  %4 = load ptr, ptr %2, align 8
  %5 = call ptr @vendor_secret_storage_get_entry(ptr noundef %4)
  store ptr %5, ptr %3, align 8
  %6 = load ptr, ptr %3, align 8
  %7 = icmp ne ptr %6, null
  br i1 %7, label %8, label %11

8:                                                ; preds = %1
  %9 = load ptr, ptr %3, align 8
  %10 = getelementptr inbounds nuw %struct.vendor_secret_entry_s, ptr %9, i32 0, i32 1
  store i8 0, ptr %10, align 1
  br label %11

11:                                               ; preds = %8, %1
  call void @llvm.lifetime.end.p0(i64 8, ptr %3) #9
  ret void
}