; Function Attrs: nofree nounwind null_pointer_is_valid sspstrong memory(readwrite, argmem: read, inaccessiblemem: none) uwtable
define hidden void @vendor_secret_storage_release_entry(ptr noundef readonly captures(none) %0) local_unnamed_addr #5 {
  br label %2

2:                                                ; preds = %9, %1
  %indvars.iv.i = phi i64 [ 0, %1 ], [ %indvars.iv.next.i, %9 ]
  %3 = getelementptr [64 x %struct.vendor_secret_entry_s], ptr @vendor_secret_storage, i64 0, i64 %indvars.iv.i
  %4 = getelementptr inbounds nuw i8, ptr %3, i64 16
  %5 = load i8, ptr %4, align 1, !range !8, !noundef !9
  %6 = trunc nuw i8 %5 to i1
  br i1 %6, label %7, label %9

7:                                                ; preds = %2
  %bcmp.i = tail call i32 @bcmp(ptr noundef dereferenceable(16) %3, ptr noundef readonly dereferenceable(16) %0, i64 16)
  %8 = icmp eq i32 %bcmp.i, 0
  br i1 %8, label %vendor_secret_storage_get_entry.exit, label %9

9:                                                ; preds = %7, %2
  %indvars.iv.next.i = add nuw nsw i64 %indvars.iv.i, 1
  %exitcond.not.i = icmp eq i64 %indvars.iv.next.i, 64
  br i1 %exitcond.not.i, label %vendor_secret_storage_get_entry.exit.thread, label %2, !llvm.loop !38

vendor_secret_storage_get_entry.exit:             ; preds = %7
  %.not = icmp eq ptr %3, null
  br i1 %.not, label %vendor_secret_storage_get_entry.exit.thread, label %10

10:                                               ; preds = %vendor_secret_storage_get_entry.exit
  %11 = getelementptr inbounds nuw i8, ptr %3, i64 16
  store i8 0, ptr %11, align 1
  br label %vendor_secret_storage_get_entry.exit.thread

vendor_secret_storage_get_entry.exit.thread:      ; preds = %9, %10, %vendor_secret_storage_get_entry.exit
  ret void
}